target datalayout = "e-m:e-p270:32:32-p271:32:32-p272:64:64-i64:64-i128:128-f80:128-n8:16:32:64-S128"
target triple = "x86_64-pc-linux-gnu"

%"class.std::type_info" = type { ptr, ptr }

@_ZTIN5osgeo4proj5datum22VerticalReferenceFrameE = constant { ptr, ptr, ptr } { ptr getelementptr inbounds (ptr, ptr @_ZTVN10__cxxabiv120__si_class_type_infoE, i64 2), ptr @_ZTSN5osgeo4proj5datum22VerticalReferenceFrameE, ptr @_ZTIN5osgeo4proj5datum5DatumE }, align 8

; Function Attrs: mustprogress nounwind uwtable
define linkonce_odr noundef ptr @_ZNKSt9type_info4nameEv(ptr noundef nonnull align 8 dereferenceable(16) %0) #1 comdat align 2 {
  %2 = alloca ptr, align 8
  store ptr %0, ptr %2, align 8
  %3 = load ptr, ptr %2, align 8
  %4 = getelementptr inbounds %"class.std::type_info", ptr %3, i32 0, i32 1
  %5 = load ptr, ptr %4, align 8
  %6 = getelementptr inbounds i8, ptr %5, i64 0
  %7 = load i8, ptr %6, align 1
  %8 = sext i8 %7 to i32
  %9 = icmp eq i32 %8, 42
  br i1 %9, label %10, label %14

10:                                               ; preds = %1
  %11 = getelementptr inbounds %"class.std::type_info", ptr %3, i32 0, i32 1
  %12 = load ptr, ptr %11, align 8
  %13 = getelementptr inbounds i8, ptr %12, i64 1
  br label %17

14:                                               ; preds = %1
  %15 = getelementptr inbounds %"class.std::type_info", ptr %3, i32 0, i32 1
  %16 = load ptr, ptr %15, align 8
  br label %17

17:                                               ; preds = %14, %10
  %18 = phi ptr [ %13, %10 ], [ %16, %14 ]
  ret ptr %18
}

; Function Attrs: mustprogress nounwind uwtable
define linkonce_odr noundef i64 @_ZNKSt9type_info9hash_codeEv(ptr noundef nonnull align 8 dereferenceable(16) %0) #1 comdat align 2 personality ptr @__gxx_personality_v0 {
  %2 = alloca ptr, align 8
  store ptr %0, ptr %2, align 8
  %3 = load ptr, ptr %2, align 8
  %4 = call noundef ptr @_ZNKSt9type_info4nameEv(ptr noundef nonnull align 8 dereferenceable(16) %3) #18
  %5 = call noundef ptr @_ZNKSt9type_info4nameEv(ptr noundef nonnull align 8 dereferenceable(16) %3) #18
  %6 = call i64 @strlen(ptr noundef %5) #18
  %7 = invoke noundef i64 @_ZSt11_Hash_bytesPKvmm(ptr noundef %4, i64 noundef %6, i64 noundef 3339675911)
          to label %8 unwind label %9

8:                                                ; preds = %1
  ret i64 %7

9:                                                ; preds = %1
  %10 = landingpad { ptr, i32 }
          catch ptr null
  %11 = extractvalue { ptr, i32 } %10, 0
  call void @__clang_call_terminate(ptr %11) #21
  unreachable
}

; Function Attrs: mustprogress nounwind uwtable
define linkonce_odr hidden noundef zeroext i1 @_ZN5osgeo4proj4util13isOfExactTypeINS0_5datum22VerticalReferenceFrameENS1_11IComparableEEEbRKT0_(ptr noundef nonnull align 8 dereferenceable(8) %0) #1 comdat {
  %2 = alloca ptr, align 8
  store ptr %0, ptr %2, align 8
  %3 = call noundef i64 @_ZNKSt9type_info9hash_codeEv(ptr noundef nonnull align 8 dereferenceable(16) @_ZTIN5osgeo4proj5datum22VerticalReferenceFrameE) #18
  %4 = load ptr, ptr %2, align 8
  %5 = load ptr, ptr %4, align 8
  %6 = getelementptr inbounds ptr, ptr %5, i64 -1
  %7 = load ptr, ptr %6, align 8
  %8 = call noundef i64 @_ZNKSt9type_info9hash_codeEv(ptr noundef nonnull align 8 dereferenceable(16) %7) #18
  %9 = icmp eq i64 %3, %8
  ret i1 %9
}

; Function Attrs: mustprogress uwtable
define hidden noundef zeroext i1 @_ZNK5osgeo4proj5datum22VerticalReferenceFrame15_isEquivalentToEPKNS0_4util11IComparableENS4_9CriterionERKSt10shared_ptrINS0_2io15DatabaseContextEE(ptr noundef nonnull align 8 dereferenceable(72) %0, ptr noundef %1, i32 noundef %2, ptr noundef nonnull align 8 dereferenceable(16) %3) unnamed_addr #0 align 2 {
  %5 = alloca i1, align 1
  %6 = alloca ptr, align 8
  %7 = alloca ptr, align 8
  %8 = alloca i32, align 4
  %9 = alloca ptr, align 8
  store ptr %0, ptr %6, align 8
  store ptr %1, ptr %7, align 8
  store i32 %2, ptr %8, align 4
  store ptr %3, ptr %9, align 8
  %10 = load ptr, ptr %6, align 8
  %11 = load i32, ptr %8, align 4
  %12 = icmp eq i32 %11, 0
  br i1 %12, label %13, label %17

13:                                               ; preds = %4
  %14 = load ptr, ptr %7, align 8
  %15 = call noundef zeroext i1 @_ZN5osgeo4proj4util13isOfExactTypeINS0_5datum22VerticalReferenceFrameENS1_11IComparableEEEbRKT0_(ptr noundef nonnull align 8 dereferenceable(8) %14)
  br i1 %15, label %17, label %16

16:                                               ; preds = %13
  store i1 false, ptr %5, align 1
  br label %22

17:                                               ; preds = %13, %4
  %18 = load ptr, ptr %7, align 8
  %19 = load i32, ptr %8, align 4
  %20 = load ptr, ptr %9, align 8
  %21 = call noundef zeroext i1 @_ZNK5osgeo4proj5datum22VerticalReferenceFrame30isEquivalentToNoExactTypeCheckEPKNS0_4util11IComparableENS4_9CriterionERKSt10shared_ptrINS0_2io15DatabaseContextEE(ptr noundef nonnull align 8 dereferenceable(72) %10, ptr noundef %18, i32 noundef %19, ptr noundef nonnull align 8 dereferenceable(16) %20)
  store i1 %21, ptr %5, align 1
  br label %22

22:                                               ; preds = %17, %16
  %23 = load i1, ptr %5, align 1
  ret i1 %23
}