; Function Attrs: mustprogress uwtable
define hidden noundef zeroext i1 @_ZNK5osgeo4proj5datum22VerticalReferenceFrame15_isEquivalentToEPKNS0_4util11IComparableENS4_9CriterionERKSt10shared_ptrINS0_2io15DatabaseContextEE(ptr noundef nonnull align 8 dereferenceable(72) %0, ptr noundef %1, i32 noundef %2, ptr noundef nonnull align 8 dereferenceable(16) %3) unnamed_addr #0 align 2 personality ptr @__gxx_personality_v0 {
  %5 = icmp eq i32 %2, 0
  br i1 %5, label %7, label %.split

.split:                                           ; preds = %4
  %6 = tail call noundef zeroext i1 @_ZNK5osgeo4proj5datum22VerticalReferenceFrame30isEquivalentToNoExactTypeCheckEPKNS0_4util11IComparableENS4_9CriterionERKSt10shared_ptrINS0_2io15DatabaseContextEE(ptr noundef nonnull align 8 dereferenceable(72) %0, ptr noundef %1, i32 noundef %2, ptr noundef nonnull align 8 dereferenceable(16) %3)
  br label %27

7:                                                ; preds = %4
  %8 = invoke noundef i64 @_ZSt11_Hash_bytesPKvmm(ptr noundef nonnull @_ZTSN5osgeo4proj5datum22VerticalReferenceFrameE, i64 noundef 43, i64 noundef 3339675911)
          to label %_ZNKSt9type_info9hash_codeEv.exit.i unwind label %9

9:                                                ; preds = %7
  %10 = landingpad { ptr, i32 }
          catch ptr null
  %11 = extractvalue { ptr, i32 } %10, 0
  tail call void @__clang_call_terminate(ptr %11) #29
  unreachable

_ZNKSt9type_info9hash_codeEv.exit.i:              ; preds = %7
  %12 = load ptr, ptr %1, align 8
  %13 = getelementptr inbounds i8, ptr %12, i64 -8
  %14 = load ptr, ptr %13, align 8
  %15 = getelementptr inbounds i8, ptr %14, i64 8
  %16 = load ptr, ptr %15, align 8
  %17 = load i8, ptr %16, align 1
  %18 = icmp eq i8 %17, 42
  %.idx.i.i.i = zext i1 %18 to i64
  %19 = getelementptr inbounds i8, ptr %16, i64 %.idx.i.i.i
  %20 = tail call i64 @strlen(ptr noundef nonnull dereferenceable(1) %19) #26
  %21 = invoke noundef i64 @_ZSt11_Hash_bytesPKvmm(ptr noundef nonnull %19, i64 noundef %20, i64 noundef 3339675911)
          to label %_ZN5osgeo4proj4util13isOfExactTypeINS0_5datum22VerticalReferenceFrameENS1_11IComparableEEEbRKT0_.exit unwind label %22

22:                                               ; preds = %_ZNKSt9type_info9hash_codeEv.exit.i
  %23 = landingpad { ptr, i32 }
          catch ptr null
  %24 = extractvalue { ptr, i32 } %23, 0
  tail call void @__clang_call_terminate(ptr %24) #29
  unreachable

_ZN5osgeo4proj4util13isOfExactTypeINS0_5datum22VerticalReferenceFrameENS1_11IComparableEEEbRKT0_.exit: ; preds = %_ZNKSt9type_info9hash_codeEv.exit.i
  %25 = icmp eq i64 %8, %21
  br i1 %25, label %.split6, label %27

.split6:                                          ; preds = %_ZN5osgeo4proj4util13isOfExactTypeINS0_5datum22VerticalReferenceFrameENS1_11IComparableEEEbRKT0_.exit
  %26 = tail call noundef zeroext i1 @_ZNK5osgeo4proj5datum22VerticalReferenceFrame30isEquivalentToNoExactTypeCheckEPKNS0_4util11IComparableENS4_9CriterionERKSt10shared_ptrINS0_2io15DatabaseContextEE(ptr noundef nonnull align 8 dereferenceable(72) %0, ptr noundef nonnull %1, i32 noundef 0, ptr noundef nonnull align 8 dereferenceable(16) %3)
  br label %27

27:                                               ; preds = %.split, %.split6, %_ZN5osgeo4proj4util13isOfExactTypeINS0_5datum22VerticalReferenceFrameENS1_11IComparableEEEbRKT0_.exit
  %.0 = phi i1 [ false, %_ZN5osgeo4proj4util13isOfExactTypeINS0_5datum22VerticalReferenceFrameENS1_11IComparableEEEbRKT0_.exit ], [ %6, %.split ], [ %26, %.split6 ]
  ret i1 %.0
}